target datalayout = "e-m:e-p270:32:32-p271:32:32-p272:64:64-i64:64-i128:128-f80:128-n8:16:32:64-S128"
target triple = "x86_64-pc-linux-gnu"

%class.TransTableL = type { %class.TransTable, i32, i32, i32, i32, i32, i32, %"struct.TransTableL::pageStatsType", [8192 x %"struct.TransTableL::aggrType"], [12 x [4 x ptr]], [12 x [4 x ptr]], ptr, ptr, %"struct.TransTableL::harvestedType", i32, i32 }
%class.TransTable = type { ptr }
%"struct.TransTableL::pageStatsType" = type { i32, i32, i32, i32, i32 }
%"struct.TransTableL::aggrType" = type { [4 x i32], [4 x [4 x i32]] }
%"struct.TransTableL::harvestedType" = type { i32, [1000 x ptr] }
%"struct.TransTableL::distHashType" = type { i32, i32, [32 x %"struct.TransTableL::posSearchType"] }
%"struct.TransTableL::posSearchType" = type { ptr, i64 }

; Function Attrs: mustprogress nounwind uwtable
define void @_ZNK11TransTableL14UpdateSuitHistEiiPiS0_RiS1_(ptr noundef nonnull align 8 dereferenceable(664216) %0, i32 noundef %1, i32 noundef %2, ptr noundef %3, ptr noundef %4, ptr noundef nonnull align 4 dereferenceable(4) %5, ptr noundef nonnull align 4 dereferenceable(4) %6) #5 align 2 {
  %8 = alloca ptr, align 8
  %9 = alloca i32, align 4
  %10 = alloca i32, align 4
  %11 = alloca ptr, align 8
  %12 = alloca ptr, align 8
  %13 = alloca ptr, align 8
  %14 = alloca ptr, align 8
  %15 = alloca ptr, align 8
  %16 = alloca i32, align 4
  %17 = alloca i32, align 4
  store ptr %0, ptr %8, align 8
  store i32 %1, ptr %9, align 4
  store i32 %2, ptr %10, align 4
  store ptr %3, ptr %11, align 8
  store ptr %4, ptr %12, align 8
  store ptr %5, ptr %13, align 8
  store ptr %6, ptr %14, align 8
  %18 = load ptr, ptr %8, align 8
  %19 = load ptr, ptr %13, align 8
  store i32 0, ptr %19, align 4
  store i32 0, ptr %16, align 4
  br label %20

20:                                               ; preds = %28, %7
  %21 = load i32, ptr %16, align 4
  %22 = icmp sle i32 %21, 32
  br i1 %22, label %23, label %31

23:                                               ; preds = %20
  %24 = load ptr, ptr %11, align 8
  %25 = load i32, ptr %16, align 4
  %26 = sext i32 %25 to i64
  %27 = getelementptr inbounds i32, ptr %24, i64 %26
  store i32 0, ptr %27, align 4
  br label %28

28:                                               ; preds = %23
  %29 = load i32, ptr %16, align 4
  %30 = add nsw i32 %29, 1
  store i32 %30, ptr %16, align 4
  br label %20, !llvm.loop !45

31:                                               ; preds = %20
  store i32 0, ptr %17, align 4
  br label %32

32:                                               ; preds = %78, %31
  %33 = load i32, ptr %17, align 4
  %34 = icmp slt i32 %33, 256
  br i1 %34, label %35, label %81

35:                                               ; preds = %32
  %36 = getelementptr inbounds nuw %class.TransTableL, ptr %18, i32 0, i32 9
  %37 = load i32, ptr %9, align 4
  %38 = sext i32 %37 to i64
  %39 = getelementptr inbounds [12 x [4 x ptr]], ptr %36, i64 0, i64 %38
  %40 = load i32, ptr %10, align 4
  %41 = sext i32 %40 to i64
  %42 = getelementptr inbounds [4 x ptr], ptr %39, i64 0, i64 %41
  %43 = load ptr, ptr %42, align 8
  %44 = load i32, ptr %17, align 4
  %45 = sext i32 %44 to i64
  %46 = getelementptr inbounds %"struct.TransTableL::distHashType", ptr %43, i64 %45
  store ptr %46, ptr %15, align 8
  %47 = load ptr, ptr %11, align 8
  %48 = load ptr, ptr %15, align 8
  %49 = getelementptr inbounds nuw %"struct.TransTableL::distHashType", ptr %48, i32 0, i32 0
  %50 = load i32, ptr %49, align 8
  %51 = sext i32 %50 to i64
  %52 = getelementptr inbounds i32, ptr %47, i64 %51
  %53 = load i32, ptr %52, align 4
  %54 = add nsw i32 %53, 1
  store i32 %54, ptr %52, align 4
  %55 = load ptr, ptr %12, align 8
  %56 = load ptr, ptr %15, align 8
  %57 = getelementptr inbounds nuw %"struct.TransTableL::distHashType", ptr %56, i32 0, i32 0
  %58 = load i32, ptr %57, align 8
  %59 = sext i32 %58 to i64
  %60 = getelementptr inbounds i32, ptr %55, i64 %59
  %61 = load i32, ptr %60, align 4
  %62 = add nsw i32 %61, 1
  store i32 %62, ptr %60, align 4
  %63 = load ptr, ptr %15, align 8
  %64 = getelementptr inbounds nuw %"struct.TransTableL::distHashType", ptr %63, i32 0, i32 0
  %65 = load i32, ptr %64, align 8
  %66 = load ptr, ptr %15, align 8
  %67 = getelementptr inbounds nuw %"struct.TransTableL::distHashType", ptr %66, i32 0, i32 1
  %68 = load i32, ptr %67, align 4
  %69 = icmp ne i32 %65, %68
  br i1 %69, label %70, label %77

70:                                               ; preds = %35
  %71 = load ptr, ptr %13, align 8
  %72 = load i32, ptr %71, align 4
  %73 = add nsw i32 %72, 1
  store i32 %73, ptr %71, align 4
  %74 = load ptr, ptr %14, align 8
  %75 = load i32, ptr %74, align 4
  %76 = add nsw i32 %75, 1
  store i32 %76, ptr %74, align 4
  br label %77

77:                                               ; preds = %70, %35
  br label %78

78:                                               ; preds = %77
  %79 = load i32, ptr %17, align 4
  %80 = add nsw i32 %79, 1
  store i32 %80, ptr %17, align 4
  br label %32, !llvm.loop !46

81:                                               ; preds = %32
  ret void
}