; Function Attrs: mustprogress nofree norecurse nosync nounwind memory(read, argmem: readwrite, inaccessiblemem: none) uwtable
define void @_ZNK11TransTableL14UpdateSuitHistEiiPiS0_RiS1_(ptr nocapture noundef nonnull readonly align 8 dereferenceable(664216) %0, i32 noundef %1, i32 noundef %2, ptr nocapture noundef %3, ptr nocapture noundef %4, ptr nocapture noundef nonnull align 4 dereferenceable(4) %5, ptr nocapture noundef nonnull align 4 dereferenceable(4) %6) local_unnamed_addr #24 align 2 {
.preheader:
  store i32 0, ptr %5, align 4
  tail call void @llvm.memset.p0.i64(ptr noundef nonnull align 4 dereferenceable(132) %3, i8 0, i64 132, i1 false)
  %7 = getelementptr inbounds nuw i8, ptr %0, i64 655416
  %8 = sext i32 %1 to i64
  %9 = sext i32 %2 to i64
  %10 = getelementptr inbounds [12 x [4 x ptr]], ptr %7, i64 0, i64 %8, i64 %9
  br label %11

11:                                               ; preds = %.preheader, %32
  %indvars.iv = phi i64 [ 0, %.preheader ], [ %indvars.iv.next, %32 ]
  %12 = load ptr, ptr %10, align 8
  %13 = getelementptr inbounds %"struct.TransTableL::distHashType", ptr %12, i64 %indvars.iv
  %14 = load i32, ptr %13, align 8
  %15 = sext i32 %14 to i64
  %16 = getelementptr inbounds i32, ptr %3, i64 %15
  %17 = load i32, ptr %16, align 4
  %18 = add nsw i32 %17, 1
  store i32 %18, ptr %16, align 4
  %19 = load i32, ptr %13, align 8
  %20 = sext i32 %19 to i64
  %21 = getelementptr inbounds i32, ptr %4, i64 %20
  %22 = load i32, ptr %21, align 4
  %23 = add nsw i32 %22, 1
  store i32 %23, ptr %21, align 4
  %24 = load i32, ptr %13, align 8
  %25 = getelementptr inbounds nuw i8, ptr %13, i64 4
  %26 = load i32, ptr %25, align 4
  %.not = icmp eq i32 %24, %26
  br i1 %.not, label %32, label %27

27:                                               ; preds = %11
  %28 = load i32, ptr %5, align 4
  %29 = add nsw i32 %28, 1
  store i32 %29, ptr %5, align 4
  %30 = load i32, ptr %6, align 4
  %31 = add nsw i32 %30, 1
  store i32 %31, ptr %6, align 4
  br label %32

32:                                               ; preds = %11, %27
  %indvars.iv.next = add nuw nsw i64 %indvars.iv, 1
  %exitcond.not = icmp eq i64 %indvars.iv.next, 256
  br i1 %exitcond.not, label %33, label %11, !llvm.loop !68

33:                                               ; preds = %32
  ret void
}